target datalayout = "e-m:e-p270:32:32-p271:32:32-p272:64:64-i64:64-i128:128-f80:128-n8:16:32:64-S128"
target triple = "x86_64-pc-linux-gnu"

%class.QList.13 = type { %struct.QArrayDataPointer.16 }
%struct.QArrayDataPointer.16 = type { ptr, ptr, i64 }
%class.QList.9 = type { %struct.QArrayDataPointer.12 }
%struct.QArrayDataPointer.12 = type { ptr, ptr, i64 }
%class.QFlags = type { i32 }
%class.QTreeWidgetItem = type <{ ptr, i32, [4 x i8], %class.QList.9, ptr, ptr, ptr, %class.QList.13, %class.QFlags, [4 x i8] }>
%class.QList.20 = type { %struct.QArrayDataPointer.23 }
%struct.QArrayDataPointer.23 = type { ptr, ptr, i64 }

; Function Attrs: mustprogress null_pointer_is_valid sspstrong uwtable
define linkonce_odr noundef align 8 dereferenceable(24) ptr @_ZN5QListI8QVariantEpLEOS1_(ptr noundef align 8 dereferenceable_or_null(24) %0, ptr noundef align 8 dereferenceable(24) %1) #3 comdat align 2 {
  %3 = alloca ptr, align 8
  %4 = alloca ptr, align 8
  store ptr %0, ptr %3, align 8
  store ptr %1, ptr %4, align 8
  %5 = load ptr, ptr %3, align 8
  %6 = load ptr, ptr %4, align 8
  call void @_ZN5QListI8QVariantE6appendEOS1_(ptr noundef align 8 dereferenceable_or_null(24) %5, ptr noundef align 8 dereferenceable(24) %6)
  ret ptr %5
}

; Function Attrs: mustprogress nounwind null_pointer_is_valid sspstrong uwtable
define linkonce_odr void @_ZN17QArrayDataPointerI8QVariantEC2Ev(ptr noundef align 8 dereferenceable_or_null(24) %0) unnamed_addr #1 comdat align 2 {
  %2 = alloca ptr, align 8
  store ptr %0, ptr %2, align 8
  %3 = load ptr, ptr %2, align 8
  %4 = getelementptr inbounds nuw %struct.QArrayDataPointer.23, ptr %3, i32 0, i32 0
  store ptr null, ptr %4, align 8
  %5 = getelementptr inbounds nuw %struct.QArrayDataPointer.23, ptr %3, i32 0, i32 1
  store ptr null, ptr %5, align 8
  %6 = getelementptr inbounds nuw %struct.QArrayDataPointer.23, ptr %3, i32 0, i32 2
  store i64 0, ptr %6, align 8
  ret void
}

; Function Attrs: inlinehint mustprogress null_pointer_is_valid sspstrong uwtable
define linkonce_odr noundef align 8 dereferenceable(24) ptr @_ZN5QListI8QVariantElsEOS1_(ptr noundef align 8 dereferenceable_or_null(24) %0, ptr noundef align 8 dereferenceable(24) %1) #7 comdat align 2 {
  %3 = alloca ptr, align 8
  %4 = alloca ptr, align 8
  store ptr %0, ptr %3, align 8
  store ptr %1, ptr %4, align 8
  %5 = load ptr, ptr %3, align 8
  %6 = load ptr, ptr %4, align 8
  %7 = call noundef align 8 dereferenceable(24) ptr @_ZN5QListI8QVariantEpLEOS1_(ptr noundef align 8 dereferenceable_or_null(24) %5, ptr noundef align 8 dereferenceable(24) %6)
  ret ptr %5
}

; Function Attrs: inlinehint mustprogress nounwind null_pointer_is_valid sspstrong uwtable
define linkonce_odr noundef i32 @_ZNK15QTreeWidgetItem4typeEv(ptr noundef align 8 dereferenceable_or_null(92) %0) #8 comdat align 2 {
  %2 = alloca ptr, align 8
  store ptr %0, ptr %2, align 8
  %3 = load ptr, ptr %2, align 8
  %4 = getelementptr inbounds nuw %class.QTreeWidgetItem, ptr %3, i32 0, i32 1
  %5 = load i32, ptr %4, align 8
  ret i32 %5
}

; Function Attrs: mustprogress nounwind null_pointer_is_valid sspstrong uwtable
define linkonce_odr void @_ZN5QListI8QVariantEC2Ev(ptr noundef align 8 dereferenceable_or_null(24) %0) unnamed_addr #1 comdat align 2 {
  %2 = alloca ptr, align 8
  store ptr %0, ptr %2, align 8
  %3 = load ptr, ptr %2, align 8
  %4 = getelementptr inbounds nuw %class.QList.20, ptr %3, i32 0, i32 0
  call void @_ZN17QArrayDataPointerI8QVariantEC2Ev(ptr noundef align 8 dereferenceable_or_null(24) %4) #2
  ret void
}

; Function Attrs: mustprogress null_pointer_is_valid sspstrong uwtable
define void @_ZNK25ServiceResponseTimeDialog12treeItemDataEP15QTreeWidgetItem(ptr dead_on_unwind noalias writable sret(%class.QList.20) align 8 %0, ptr noundef align 8 dereferenceable_or_null(256) %1, ptr noundef %2) unnamed_addr #3 align 2 personality ptr @__gxx_personality_v0 {
  %4 = alloca ptr, align 8
  %5 = alloca ptr, align 8
  %6 = alloca ptr, align 8
  %7 = alloca i1, align 1
  %8 = alloca ptr, align 8
  %9 = alloca i32, align 4
  %10 = alloca ptr, align 8
  %11 = alloca %class.QList.20, align 8
  %12 = alloca ptr, align 8
  %13 = alloca %class.QList.20, align 8
  store ptr %0, ptr %4, align 8
  store ptr %1, ptr %5, align 8
  store ptr %2, ptr %6, align 8
  store i1 false, ptr %7, align 1
  call void @_ZN5QListI8QVariantEC2Ev(ptr noundef align 8 dereferenceable_or_null(24) %0) #2
  %14 = load ptr, ptr %6, align 8
  %15 = invoke noundef i32 @_ZNK15QTreeWidgetItem4typeEv(ptr noundef align 8 dereferenceable_or_null(92) %14)
          to label %16 unwind label %27

16:                                               ; preds = %3
  %17 = icmp eq i32 %15, 1000
  br i1 %17, label %18, label %41

18:                                               ; preds = %16
  call void @llvm.lifetime.start.p0(i64 8, ptr %10) #2
  %19 = load ptr, ptr %6, align 8
  store ptr %19, ptr %10, align 8
  %20 = load ptr, ptr %10, align 8
  %21 = icmp ne ptr %20, null
  br i1 %21, label %22, label %40

22:                                               ; preds = %18
  call void @llvm.lifetime.start.p0(i64 24, ptr %11) #2
  %23 = load ptr, ptr %10, align 8
  invoke void @_ZN22SrtTableTreeWidgetItem7rowDataEv(ptr dead_on_unwind writable sret(%class.QList.20) align 8 %11, ptr noundef align 8 dereferenceable_or_null(104) %23)
          to label %24 unwind label %31

24:                                               ; preds = %22
  %25 = invoke noundef align 8 dereferenceable(24) ptr @_ZN5QListI8QVariantElsEOS1_(ptr noundef align 8 dereferenceable_or_null(24) %0, ptr noundef align 8 dereferenceable(24) %11)
          to label %26 unwind label %35

26:                                               ; preds = %24
  call void @_ZN5QListI8QVariantED2Ev(ptr noundef align 8 dereferenceable_or_null(24) %11) #2
  call void @llvm.lifetime.end.p0(i64 24, ptr %11) #2
  br label %40

27:                                               ; preds = %41, %3
  %28 = landingpad { ptr, i32 }
          cleanup
  %29 = extractvalue { ptr, i32 } %28, 0
  store ptr %29, ptr %8, align 8
  %30 = extractvalue { ptr, i32 } %28, 1
  store i32 %30, ptr %9, align 4
  br label %70

31:                                               ; preds = %22
  %32 = landingpad { ptr, i32 }
          cleanup
  %33 = extractvalue { ptr, i32 } %32, 0
  store ptr %33, ptr %8, align 8
  %34 = extractvalue { ptr, i32 } %32, 1
  store i32 %34, ptr %9, align 4
  br label %39

35:                                               ; preds = %24
  %36 = landingpad { ptr, i32 }
          cleanup
  %37 = extractvalue { ptr, i32 } %36, 0
  store ptr %37, ptr %8, align 8
  %38 = extractvalue { ptr, i32 } %36, 1
  store i32 %38, ptr %9, align 4
  call void @_ZN5QListI8QVariantED2Ev(ptr noundef align 8 dereferenceable_or_null(24) %11) #2
  br label %39

39:                                               ; preds = %35, %31
  call void @llvm.lifetime.end.p0(i64 24, ptr %11) #2
  call void @llvm.lifetime.end.p0(i64 8, ptr %10) #2
  br label %70

40:                                               ; preds = %26, %18
  call void @llvm.lifetime.end.p0(i64 8, ptr %10) #2
  br label %66

41:                                               ; preds = %16
  %42 = load ptr, ptr %6, align 8
  %43 = invoke noundef i32 @_ZNK15QTreeWidgetItem4typeEv(ptr noundef align 8 dereferenceable_or_null(92) %42)
          to label %44 unwind label %27

44:                                               ; preds = %41
  %45 = icmp eq i32 %43, 1001
  br i1 %45, label %46, label %65

46:                                               ; preds = %44
  call void @llvm.lifetime.start.p0(i64 8, ptr %12) #2
  %47 = load ptr, ptr %6, align 8
  store ptr %47, ptr %12, align 8
  %48 = load ptr, ptr %12, align 8
  %49 = icmp ne ptr %48, null
  br i1 %49, label %50, label %64

50:                                               ; preds = %46
  call void @llvm.lifetime.start.p0(i64 24, ptr %13) #2
  %51 = load ptr, ptr %12, align 8
  invoke void @_ZN20SrtRowTreeWidgetItem7rowDataEv(ptr dead_on_unwind writable sret(%class.QList.20) align 8 %13, ptr noundef align 8 dereferenceable_or_null(104) %51)
          to label %52 unwind label %55

52:                                               ; preds = %50
  %53 = invoke noundef align 8 dereferenceable(24) ptr @_ZN5QListI8QVariantElsEOS1_(ptr noundef align 8 dereferenceable_or_null(24) %0, ptr noundef align 8 dereferenceable(24) %13)
          to label %54 unwind label %59

54:                                               ; preds = %52
  call void @_ZN5QListI8QVariantED2Ev(ptr noundef align 8 dereferenceable_or_null(24) %13) #2
  call void @llvm.lifetime.end.p0(i64 24, ptr %13) #2
  br label %64

55:                                               ; preds = %50
  %56 = landingpad { ptr, i32 }
          cleanup
  %57 = extractvalue { ptr, i32 } %56, 0
  store ptr %57, ptr %8, align 8
  %58 = extractvalue { ptr, i32 } %56, 1
  store i32 %58, ptr %9, align 4
  br label %63

59:                                               ; preds = %52
  %60 = landingpad { ptr, i32 }
          cleanup
  %61 = extractvalue { ptr, i32 } %60, 0
  store ptr %61, ptr %8, align 8
  %62 = extractvalue { ptr, i32 } %60, 1
  store i32 %62, ptr %9, align 4
  call void @_ZN5QListI8QVariantED2Ev(ptr noundef align 8 dereferenceable_or_null(24) %13) #2
  br label %63

63:                                               ; preds = %59, %55
  call void @llvm.lifetime.end.p0(i64 24, ptr %13) #2
  call void @llvm.lifetime.end.p0(i64 8, ptr %12) #2
  br label %70

64:                                               ; preds = %54, %46
  call void @llvm.lifetime.end.p0(i64 8, ptr %12) #2
  br label %65

65:                                               ; preds = %64, %44
  br label %66

66:                                               ; preds = %65, %40
  store i1 true, ptr %7, align 1
  %67 = load i1, ptr %7, align 1
  br i1 %67, label %69, label %68

68:                                               ; preds = %66
  call void @_ZN5QListI8QVariantED2Ev(ptr noundef align 8 dereferenceable_or_null(24) %0) #2
  br label %69

69:                                               ; preds = %68, %66
  ret void

70:                                               ; preds = %63, %39, %27
  call void @_ZN5QListI8QVariantED2Ev(ptr noundef align 8 dereferenceable_or_null(24) %0) #2
  br label %71

71:                                               ; preds = %70
  %72 = load ptr, ptr %8, align 8
  %73 = load i32, ptr %9, align 4
  %74 = insertvalue { ptr, i32 } poison, ptr %72, 0
  %75 = insertvalue { ptr, i32 } %74, i32 %73, 1
  resume { ptr, i32 } %75
}