; Function Attrs: mustprogress null_pointer_is_valid sspstrong uwtable
define void @_ZNK25ServiceResponseTimeDialog12treeItemDataEP15QTreeWidgetItem(ptr dead_on_unwind noalias writable sret(%class.QList.20) align 8 initializes((0, 24)) %0, ptr noundef readnone align 8 captures(none) dereferenceable_or_null(256) %1, ptr noundef %2) unnamed_addr #2 align 2 personality ptr @__gxx_personality_v0 {
  %4 = alloca %class.QList.20, align 8
  %5 = alloca %class.QList.20, align 8
  tail call void @llvm.memset.p0.i64(ptr noundef align 8 dereferenceable(24) dereferenceable_or_null(24) %0, i8 0, i64 24, i1 false)
  %6 = getelementptr inbounds nuw i8, ptr %2, i64 8
  %7 = load i32, ptr %6, align 8
  %8 = icmp eq i32 %7, 1000
  br i1 %8, label %9, label %27

9:                                                ; preds = %3
  %.not16 = icmp eq ptr %2, null
  br i1 %.not16, label %46, label %10

10:                                               ; preds = %9
  call void @llvm.lifetime.start.p0(i64 24, ptr nonnull %4) #26
  invoke void @_ZN22SrtTableTreeWidgetItem7rowDataEv(ptr dead_on_unwind nonnull writable sret(%class.QList.20) align 8 %4, ptr noundef nonnull align 8 dereferenceable_or_null(104) %2)
          to label %11 unwind label %22

11:                                               ; preds = %10
  invoke void @_ZN5QListI8QVariantE6appendEOS1_(ptr noundef align 8 dereferenceable_or_null(24) %0, ptr noundef nonnull align 8 dereferenceable(24) %4)
          to label %_ZN5QListI8QVariantElsEOS1_.exit unwind label %24

_ZN5QListI8QVariantElsEOS1_.exit:                 ; preds = %11
  %12 = load ptr, ptr %4, align 8
  %.not.i.i.i = icmp eq ptr %12, null
  br i1 %.not.i.i.i, label %_ZN5QListI8QVariantED2Ev.exit, label %_ZN17QArrayDataPointerI8QVariantE5derefEv.exit.i.i

_ZN17QArrayDataPointerI8QVariantE5derefEv.exit.i.i: ; preds = %_ZN5QListI8QVariantElsEOS1_.exit
  %13 = atomicrmw sub ptr %12, i32 1 seq_cst, align 4
  %.not.i.i = icmp eq i32 %13, 1
  br i1 %.not.i.i, label %14, label %_ZN5QListI8QVariantED2Ev.exit

14:                                               ; preds = %_ZN17QArrayDataPointerI8QVariantE5derefEv.exit.i.i
  %15 = getelementptr inbounds nuw i8, ptr %4, i64 8
  %16 = load ptr, ptr %15, align 8
  %17 = getelementptr inbounds nuw i8, ptr %4, i64 16
  %18 = load i64, ptr %17, align 8
  %19 = getelementptr %class.QVariant, ptr %16, i64 %18
  %.idx.mask.i.i.i = and i64 %18, 576460752303423487
  %.not4.i.i.i.i.i.i = icmp eq i64 %.idx.mask.i.i.i, 0
  br i1 %.not4.i.i.i.i.i.i, label %_ZN9QtPrivate16QGenericArrayOpsI8QVariantE10destroyAllEv.exit.i.i, label %.lr.ph.i.i.i.i.i.i

.lr.ph.i.i.i.i.i.i:                               ; preds = %14, %.lr.ph.i.i.i.i.i.i
  %.05.i.i.i.i.i.i = phi ptr [ %20, %.lr.ph.i.i.i.i.i.i ], [ %16, %14 ]
  call void @_ZN8QVariantD1Ev(ptr noundef align 8 dereferenceable_or_null(32) %.05.i.i.i.i.i.i) #26
  %20 = getelementptr i8, ptr %.05.i.i.i.i.i.i, i64 32
  %.not.i.i.i.i.i.i = icmp eq ptr %20, %19
  br i1 %.not.i.i.i.i.i.i, label %_ZN9QtPrivate16QGenericArrayOpsI8QVariantE10destroyAllEv.exit.i.i, label %.lr.ph.i.i.i.i.i.i, !llvm.loop !23

_ZN9QtPrivate16QGenericArrayOpsI8QVariantE10destroyAllEv.exit.i.i: ; preds = %.lr.ph.i.i.i.i.i.i, %14
  %21 = load ptr, ptr %4, align 8
  call void @_ZN10QArrayData10deallocateEPS_xx(ptr noundef %21, i64 noundef 32, i64 noundef 8) #26
  br label %_ZN5QListI8QVariantED2Ev.exit

_ZN5QListI8QVariantED2Ev.exit:                    ; preds = %_ZN5QListI8QVariantElsEOS1_.exit, %_ZN17QArrayDataPointerI8QVariantE5derefEv.exit.i.i, %_ZN9QtPrivate16QGenericArrayOpsI8QVariantE10destroyAllEv.exit.i.i
  call void @llvm.lifetime.end.p0(i64 24, ptr nonnull %4) #26
  br label %46

22:                                               ; preds = %10
  %23 = landingpad { ptr, i32 }
          cleanup
  br label %26

24:                                               ; preds = %11
  %25 = landingpad { ptr, i32 }
          cleanup
  call void @_ZN5QListI8QVariantED2Ev(ptr noundef nonnull align 8 dereferenceable_or_null(24) %4) #26
  br label %26

26:                                               ; preds = %24, %22
  %.pn17 = phi { ptr, i32 } [ %25, %24 ], [ %23, %22 ]
  call void @llvm.lifetime.end.p0(i64 24, ptr nonnull %4) #26
  br label %47

27:                                               ; preds = %3
  %28 = icmp ne i32 %7, 1001
  %.not = icmp eq ptr %2, null
  %or.cond = or i1 %.not, %28
  br i1 %or.cond, label %46, label %29

29:                                               ; preds = %27
  call void @llvm.lifetime.start.p0(i64 24, ptr nonnull %5) #26
  invoke void @_ZN20SrtRowTreeWidgetItem7rowDataEv(ptr dead_on_unwind nonnull writable sret(%class.QList.20) align 8 %5, ptr noundef nonnull align 8 dereferenceable_or_null(104) %2)
          to label %30 unwind label %41

30:                                               ; preds = %29
  invoke void @_ZN5QListI8QVariantE6appendEOS1_(ptr noundef align 8 dereferenceable_or_null(24) %0, ptr noundef nonnull align 8 dereferenceable(24) %5)
          to label %_ZN5QListI8QVariantElsEOS1_.exit20 unwind label %43

_ZN5QListI8QVariantElsEOS1_.exit20:               ; preds = %30
  %31 = load ptr, ptr %5, align 8
  %.not.i.i.i21 = icmp eq ptr %31, null
  br i1 %.not.i.i.i21, label %_ZN5QListI8QVariantED2Ev.exit30, label %_ZN17QArrayDataPointerI8QVariantE5derefEv.exit.i.i22

_ZN17QArrayDataPointerI8QVariantE5derefEv.exit.i.i22: ; preds = %_ZN5QListI8QVariantElsEOS1_.exit20
  %32 = atomicrmw sub ptr %31, i32 1 seq_cst, align 4
  %.not.i.i23 = icmp eq i32 %32, 1
  br i1 %.not.i.i23, label %33, label %_ZN5QListI8QVariantED2Ev.exit30

33:                                               ; preds = %_ZN17QArrayDataPointerI8QVariantE5derefEv.exit.i.i22
  %34 = getelementptr inbounds nuw i8, ptr %5, i64 8
  %35 = load ptr, ptr %34, align 8
  %36 = getelementptr inbounds nuw i8, ptr %5, i64 16
  %37 = load i64, ptr %36, align 8
  %38 = getelementptr %class.QVariant, ptr %35, i64 %37
  %.idx.mask.i.i.i24 = and i64 %37, 576460752303423487
  %.not4.i.i.i.i.i.i25 = icmp eq i64 %.idx.mask.i.i.i24, 0
  br i1 %.not4.i.i.i.i.i.i25, label %_ZN9QtPrivate16QGenericArrayOpsI8QVariantE10destroyAllEv.exit.i.i29, label %.lr.ph.i.i.i.i.i.i26

.lr.ph.i.i.i.i.i.i26:                             ; preds = %33, %.lr.ph.i.i.i.i.i.i26
  %.05.i.i.i.i.i.i27 = phi ptr [ %39, %.lr.ph.i.i.i.i.i.i26 ], [ %35, %33 ]
  call void @_ZN8QVariantD1Ev(ptr noundef align 8 dereferenceable_or_null(32) %.05.i.i.i.i.i.i27) #26
  %39 = getelementptr i8, ptr %.05.i.i.i.i.i.i27, i64 32
  %.not.i.i.i.i.i.i28 = icmp eq ptr %39, %38
  br i1 %.not.i.i.i.i.i.i28, label %_ZN9QtPrivate16QGenericArrayOpsI8QVariantE10destroyAllEv.exit.i.i29, label %.lr.ph.i.i.i.i.i.i26, !llvm.loop !23

_ZN9QtPrivate16QGenericArrayOpsI8QVariantE10destroyAllEv.exit.i.i29: ; preds = %.lr.ph.i.i.i.i.i.i26, %33
  %40 = load ptr, ptr %5, align 8
  call void @_ZN10QArrayData10deallocateEPS_xx(ptr noundef %40, i64 noundef 32, i64 noundef 8) #26
  br label %_ZN5QListI8QVariantED2Ev.exit30

_ZN5QListI8QVariantED2Ev.exit30:                  ; preds = %_ZN5QListI8QVariantElsEOS1_.exit20, %_ZN17QArrayDataPointerI8QVariantE5derefEv.exit.i.i22, %_ZN9QtPrivate16QGenericArrayOpsI8QVariantE10destroyAllEv.exit.i.i29
  call void @llvm.lifetime.end.p0(i64 24, ptr nonnull %5) #26
  br label %46

41:                                               ; preds = %29
  %42 = landingpad { ptr, i32 }
          cleanup
  br label %45

43:                                               ; preds = %30
  %44 = landingpad { ptr, i32 }
          cleanup
  call void @_ZN5QListI8QVariantED2Ev(ptr noundef nonnull align 8 dereferenceable_or_null(24) %5) #26
  br label %45

45:                                               ; preds = %43, %41
  %.pn = phi { ptr, i32 } [ %44, %43 ], [ %42, %41 ]
  call void @llvm.lifetime.end.p0(i64 24, ptr nonnull %5) #26
  br label %47

46:                                               ; preds = %27, %_ZN5QListI8QVariantED2Ev.exit, %9, %_ZN5QListI8QVariantED2Ev.exit30
  ret void

47:                                               ; preds = %45, %26
  %.pn17.pn = phi { ptr, i32 } [ %.pn17, %26 ], [ %.pn, %45 ]
  call void @_ZN5QListI8QVariantED2Ev(ptr noundef align 8 dereferenceable_or_null(24) %0) #26
  resume { ptr, i32 } %.pn17.pn
}